; Function Attrs: nofree norecurse nosync nounwind memory(read, argmem: readwrite, inaccessiblemem: none) uwtable
define i32 @ff_mqc_flush_to(ptr noundef readonly captures(none) %0, ptr noundef initializes((0, 1)) %1, ptr noundef captures(none) %2) local_unnamed_addr #3 {
  %.sroa.15.0..sroa_idx = getelementptr inbounds nuw i8, ptr %0, i64 8
  %.sroa.17.0..sroa_idx = getelementptr inbounds nuw i8, ptr %0, i64 16
  %.sroa.17.0.copyload = load i32, ptr %.sroa.17.0..sroa_idx, align 8, !tbaa !20
  %.sroa.18.0..sroa_idx = getelementptr inbounds nuw i8, ptr %0, i64 20
  %.sroa.18.0.copyload = load i32, ptr %.sroa.18.0..sroa_idx, align 4, !tbaa !20
  %.sroa.28.0..sroa_idx = getelementptr inbounds nuw i8, ptr %0, i64 24
  %.sroa.28.0.copyload = load i32, ptr %.sroa.28.0..sroa_idx, align 8, !tbaa !20
  %4 = load ptr, ptr %0, align 8, !tbaa !12
  %5 = load i8, ptr %4, align 1, !tbaa !14
  store i8 %5, ptr %1, align 1, !tbaa !14
  %6 = add i32 %.sroa.18.0.copyload, %.sroa.17.0.copyload
  %7 = or i32 %.sroa.18.0.copyload, 65535
  %.not.i.i = icmp ult i32 %7, %6
  %8 = add nsw i32 %7, -32768
  %spec.select.i.i = select i1 %.not.i.i, i32 %7, i32 %8
  %9 = shl i32 %spec.select.i.i, %.sroa.28.0.copyload
  %10 = icmp eq i8 %5, -1
  br i1 %10, label %._crit_edge.i.i, label %.lr.ph.i.i.preheader

.lr.ph.i.i.preheader:                             ; preds = %3
  %11 = and i32 %9, 134217727
  br label %.lr.ph.i.i

._crit_edge.i.i:                                  ; preds = %17, %3
  %.sroa.18.1 = phi i32 [ %9, %3 ], [ %11, %17 ]
  %12 = getelementptr inbounds nuw i8, ptr %1, i64 1
  %13 = lshr i32 %.sroa.18.1, 20
  %14 = trunc i32 %13 to i8
  store i8 %14, ptr %12, align 1, !tbaa !14
  br label %byteout.exit.i

.lr.ph.i.i:                                       ; preds = %.lr.ph.i.i.preheader, %17
  %.sroa.18.0 = phi i32 [ %11, %17 ], [ %9, %.lr.ph.i.i.preheader ]
  %15 = phi i8 [ %18, %17 ], [ %5, %.lr.ph.i.i.preheader ]
  %16 = and i32 %.sroa.18.0, 134217728
  %.not.i13.i = icmp eq i32 %16, 0
  br i1 %.not.i13.i, label %20, label %17

17:                                               ; preds = %.lr.ph.i.i
  %18 = add nuw i8 %15, 1
  store i8 %18, ptr %1, align 1, !tbaa !14
  %19 = icmp eq i8 %18, -1
  br i1 %19, label %._crit_edge.i.i, label %.lr.ph.i.i

20:                                               ; preds = %.lr.ph.i.i
  %21 = getelementptr inbounds nuw i8, ptr %1, i64 1
  %22 = lshr i32 %.sroa.18.0, 19
  %23 = trunc i32 %22 to i8
  store i8 %23, ptr %21, align 1, !tbaa !14
  br label %byteout.exit.i

byteout.exit.i:                                   ; preds = %20, %._crit_edge.i.i
  %24 = phi i8 [ %23, %20 ], [ %14, %._crit_edge.i.i ]
  %.sroa.18.2 = phi i32 [ %.sroa.18.0, %20 ], [ %.sroa.18.1, %._crit_edge.i.i ]
  %.sroa.0.0 = phi ptr [ %21, %20 ], [ %12, %._crit_edge.i.i ]
  %.sink56.i = phi i32 [ 524287, %20 ], [ 1048575, %._crit_edge.i.i ]
  %.sink.i.i = phi i32 [ 8, %20 ], [ 7, %._crit_edge.i.i ]
  %25 = and i32 %.sink56.i, %.sroa.18.2
  %26 = shl nuw nsw i32 %25, %.sink.i.i
  %27 = icmp eq i8 %24, -1
  br i1 %27, label %._crit_edge.i18.i, label %.lr.ph.i16.i.preheader

.lr.ph.i16.i.preheader:                           ; preds = %byteout.exit.i
  %28 = and i32 %26, 134217726
  br label %.lr.ph.i16.i

._crit_edge.i18.i:                                ; preds = %34, %byteout.exit.i
  %.sroa.18.4 = phi i32 [ %26, %byteout.exit.i ], [ %28, %34 ]
  %29 = getelementptr inbounds nuw i8, ptr %1, i64 2
  %30 = lshr i32 %.sroa.18.4, 20
  %31 = trunc nuw i32 %30 to i8
  store i8 %31, ptr %29, align 1, !tbaa !14
  br label %byteout.exit21.i

.lr.ph.i16.i:                                     ; preds = %.lr.ph.i16.i.preheader, %34
  %.sroa.18.3 = phi i32 [ %28, %34 ], [ %26, %.lr.ph.i16.i.preheader ]
  %32 = phi i8 [ %35, %34 ], [ %24, %.lr.ph.i16.i.preheader ]
  %33 = and i32 %.sroa.18.3, 134217728
  %.not.i17.i = icmp eq i32 %33, 0
  br i1 %.not.i17.i, label %37, label %34

34:                                               ; preds = %.lr.ph.i16.i
  %35 = add nuw i8 %32, 1
  store i8 %35, ptr %.sroa.0.0, align 1, !tbaa !14
  %36 = icmp eq i8 %35, -1
  br i1 %36, label %._crit_edge.i18.i, label %.lr.ph.i16.i

37:                                               ; preds = %.lr.ph.i16.i
  %38 = getelementptr inbounds nuw i8, ptr %1, i64 2
  %39 = lshr i32 %.sroa.18.3, 19
  %40 = trunc i32 %39 to i8
  store i8 %40, ptr %38, align 1, !tbaa !14
  br label %byteout.exit21.i

byteout.exit21.i:                                 ; preds = %37, %._crit_edge.i18.i
  %41 = phi i8 [ %40, %37 ], [ %31, %._crit_edge.i18.i ]
  %.sroa.0.1 = phi ptr [ %38, %37 ], [ %29, %._crit_edge.i18.i ]
  %.not.i = icmp eq i8 %41, -1
  %42 = getelementptr inbounds nuw i8, ptr %1, i64 3
  %spec.select = select i1 %.not.i, ptr %.sroa.0.1, ptr %42
  %43 = ptrtoint ptr %1 to i64
  %44 = ptrtoint ptr %spec.select to i64
  %45 = sub i64 %44, %43
  %46 = trunc i64 %45 to i32
  store i32 %46, ptr %2, align 4, !tbaa !20
  %47 = load ptr, ptr %0, align 8, !tbaa !12
  %48 = load ptr, ptr %.sroa.15.0..sroa_idx, align 8, !tbaa !13
  %49 = icmp ult ptr %47, %48
  br i1 %49, label %50, label %63

50:                                               ; preds = %byteout.exit21.i
  %51 = add nsw i32 %46, -1
  store i32 %51, ptr %2, align 4, !tbaa !20
  %52 = getelementptr inbounds nuw i8, ptr %1, i64 1
  %53 = sext i32 %51 to i64
  tail call void @llvm.memmove.p0.p0.i64(ptr nonnull align 1 %1, ptr nonnull align 1 %52, i64 %53, i1 false)
  %54 = load ptr, ptr %0, align 8, !tbaa !12
  %55 = load ptr, ptr %.sroa.15.0..sroa_idx, align 8, !tbaa !13
  %56 = ptrtoint ptr %54 to i64
  %57 = ptrtoint ptr %55 to i64
  %58 = sub i64 %56, %57
  %59 = load i32, ptr %2, align 4, !tbaa !20
  %60 = trunc i64 %58 to i32
  %61 = add i32 %59, 1
  %62 = add i32 %61, %60
  br label %69

63:                                               ; preds = %byteout.exit21.i
  %64 = ptrtoint ptr %47 to i64
  %65 = ptrtoint ptr %48 to i64
  %66 = add i64 %45, %64
  %67 = sub i64 %66, %65
  %68 = trunc i64 %67 to i32
  br label %69

69:                                               ; preds = %63, %50
  %.0 = phi i32 [ %62, %50 ], [ %68, %63 ]
  ret i32 %.0
}